target datalayout = "e-m:e-p270:32:32-p271:32:32-p272:64:64-i64:64-i128:128-f80:128-n8:16:32:64-S128"
target triple = "x86_64-pc-linux-gnu"

; Function Attrs: nounwind uwtable
define internal void @SDL_Convert41ToQuad(ptr noundef %0, ptr noundef %1, i32 noundef %2) #0 {
  %4 = alloca ptr, align 8
  %5 = alloca ptr, align 8
  %6 = alloca i32, align 4
  %7 = alloca i32, align 4
  %8 = alloca float, align 4
  store ptr %0, ptr %4, align 8
  store ptr %1, ptr %5, align 8
  store i32 %2, ptr %6, align 4
  call void @llvm.lifetime.start.p0(i64 4, ptr %7) #7
  %9 = load i32, ptr %6, align 4
  store i32 %9, ptr %7, align 4
  br label %10

10:                                               ; preds = %49, %3
  %11 = load i32, ptr %7, align 4
  %12 = icmp ne i32 %11, 0
  br i1 %12, label %13, label %56

13:                                               ; preds = %10
  call void @llvm.lifetime.start.p0(i64 4, ptr %8) #7
  %14 = load ptr, ptr %5, align 8
  %15 = getelementptr inbounds float, ptr %14, i64 2
  %16 = load float, ptr %15, align 4
  store float %16, ptr %8, align 4
  %17 = load ptr, ptr %5, align 8
  %18 = getelementptr inbounds float, ptr %17, i64 0
  %19 = load float, ptr %18, align 4
  %20 = load float, ptr %8, align 4
  %21 = fmul float %20, 0x3FAE1E1E20000000
  %22 = call float @llvm.fmuladd.f32(float %19, float 0x3FEE1E1E20000000, float %21)
  %23 = load ptr, ptr %4, align 8
  %24 = getelementptr inbounds float, ptr %23, i64 0
  store float %22, ptr %24, align 4
  %25 = load ptr, ptr %5, align 8
  %26 = getelementptr inbounds float, ptr %25, i64 1
  %27 = load float, ptr %26, align 4
  %28 = load float, ptr %8, align 4
  %29 = fmul float %28, 0x3FAE1E1E20000000
  %30 = call float @llvm.fmuladd.f32(float %27, float 0x3FEE1E1E20000000, float %29)
  %31 = load ptr, ptr %4, align 8
  %32 = getelementptr inbounds float, ptr %31, i64 1
  store float %30, ptr %32, align 4
  %33 = load float, ptr %8, align 4
  %34 = load ptr, ptr %5, align 8
  %35 = getelementptr inbounds float, ptr %34, i64 3
  %36 = load float, ptr %35, align 4
  %37 = fmul float %36, 0x3FEE1E1E20000000
  %38 = call float @llvm.fmuladd.f32(float %33, float 0x3FAE1E1E20000000, float %37)
  %39 = load ptr, ptr %4, align 8
  %40 = getelementptr inbounds float, ptr %39, i64 2
  store float %38, ptr %40, align 4
  %41 = load float, ptr %8, align 4
  %42 = load ptr, ptr %5, align 8
  %43 = getelementptr inbounds float, ptr %42, i64 4
  %44 = load float, ptr %43, align 4
  %45 = fmul float %44, 0x3FEE1E1E20000000
  %46 = call float @llvm.fmuladd.f32(float %41, float 0x3FAE1E1E20000000, float %45)
  %47 = load ptr, ptr %4, align 8
  %48 = getelementptr inbounds float, ptr %47, i64 3
  store float %46, ptr %48, align 4
  call void @llvm.lifetime.end.p0(i64 4, ptr %8) #7
  br label %49

49:                                               ; preds = %13
  %50 = load i32, ptr %7, align 4
  %51 = add nsw i32 %50, -1
  store i32 %51, ptr %7, align 4
  %52 = load ptr, ptr %5, align 8
  %53 = getelementptr inbounds float, ptr %52, i64 5
  store ptr %53, ptr %5, align 8
  %54 = load ptr, ptr %4, align 8
  %55 = getelementptr inbounds float, ptr %54, i64 4
  store ptr %55, ptr %4, align 8
  br label %10, !llvm.loop !75

56:                                               ; preds = %10
  call void @llvm.lifetime.end.p0(i64 4, ptr %7) #7
  ret void
}