; Function Attrs: nofree norecurse nosync nounwind memory(argmem: readwrite) uwtable
define internal void @SDL_Convert41ToQuad(ptr noundef writeonly captures(none) %0, ptr noundef readonly captures(none) %1, i32 noundef %2) #5 {
  %.not19 = icmp eq i32 %2, 0
  br i1 %.not19, label %._crit_edge, label %.lr.ph

.lr.ph:                                           ; preds = %3, %.lr.ph
  %.022 = phi ptr [ %25, %.lr.ph ], [ %0, %3 ]
  %.01721 = phi i32 [ %23, %.lr.ph ], [ %2, %3 ]
  %.01820 = phi ptr [ %24, %.lr.ph ], [ %1, %3 ]
  %4 = getelementptr inbounds nuw i8, ptr %.01820, i64 8
  %5 = load float, ptr %4, align 4
  %6 = load float, ptr %.01820, align 4
  %7 = fmul float %5, 0x3FAE1E1E20000000
  %8 = tail call float @llvm.fmuladd.f32(float %6, float 0x3FEE1E1E20000000, float %7)
  store float %8, ptr %.022, align 4
  %9 = getelementptr inbounds nuw i8, ptr %.01820, i64 4
  %10 = load float, ptr %9, align 4
  %11 = tail call float @llvm.fmuladd.f32(float %10, float 0x3FEE1E1E20000000, float %7)
  %12 = getelementptr inbounds nuw i8, ptr %.022, i64 4
  store float %11, ptr %12, align 4
  %13 = getelementptr inbounds nuw i8, ptr %.01820, i64 12
  %14 = load float, ptr %13, align 4
  %15 = fmul float %14, 0x3FEE1E1E20000000
  %16 = tail call float @llvm.fmuladd.f32(float %5, float 0x3FAE1E1E20000000, float %15)
  %17 = getelementptr inbounds nuw i8, ptr %.022, i64 8
  store float %16, ptr %17, align 4
  %18 = getelementptr inbounds nuw i8, ptr %.01820, i64 16
  %19 = load float, ptr %18, align 4
  %20 = fmul float %19, 0x3FEE1E1E20000000
  %21 = tail call float @llvm.fmuladd.f32(float %5, float 0x3FAE1E1E20000000, float %20)
  %22 = getelementptr inbounds nuw i8, ptr %.022, i64 12
  store float %21, ptr %22, align 4
  %23 = add nsw i32 %.01721, -1
  %24 = getelementptr inbounds nuw i8, ptr %.01820, i64 20
  %25 = getelementptr inbounds nuw i8, ptr %.022, i64 16
  %.not = icmp eq i32 %23, 0
  br i1 %.not, label %._crit_edge, label %.lr.ph, !llvm.loop !81

._crit_edge:                                      ; preds = %.lr.ph, %3
  ret void
}